Certificate:
    Data:
        Version: 3 (0x2)
        Serial Number: 1 (0x1)
    Signature Algorithm: sha256WithRSAEncryption
        Issuer: CN=devcert
        Validity
            Not Before: May  1 10:19:23 2020 GMT
            Not After : Aug  4 10:19:23 2022 GMT
        Subject: CN=localhost
        Subject Public Key Info:
            Public Key Algorithm: rsaEncryption
                Public-Key: (2048 bit)
                Modulus:
                    00:ea:09:3c:cd:44:75:52:9d:a0:e1:1c:65:bf:53:
                    67:18:fe:17:cc:7e:a7:88:81:cc:7d:72:ca:e2:9f:
                    73:42:7e:81:30:a1:98:61:8e:5a:06:22:81:99:e8:
                    b9:bc:cf:46:df:8b:43:ce:3f:5b:60:d9:4a:e2:e4:
                    da:13:36:f7:6b:5a:0c:90:d9:bf:9c:9e:96:7a:99:
                    f8:2b:89:ed:f7:0e:14:f2:79:39:21:65:f1:b0:81:
                    e3:d5:97:18:c6:be:7d:2e:12:68:10:d4:e5:48:06:
                    70:81:39:73:64:2f:cd:e5:f8:74:11:0e:17:63:7c:
                    90:29:5f:0e:b4:10:29:21:99:31:c8:01:a5:5c:db:
                    d2:55:16:c2:b2:5a:94:51:7f:c2:c5:03:77:01:5a:
                    11:48:96:58:34:b7:74:50:88:a3:f4:37:f1:cd:ec:
                    66:ea:6e:aa:d9:10:7a:f9:5e:1f:2f:5e:db:87:3c:
                    56:cb:27:40:fe:7e:bf:69:94:77:40:4a:35:3d:cc:
                    bf:1d:d7:31:ed:14:a9:2c:53:1c:05:94:b1:ff:8b:
                    9a:3f:bf:44:72:8f:ba:fc:7a:ff:1c:a9:7e:e6:7d:
                    8b:7e:2c:f5:60:ad:bf:36:5a:42:ce:5d:ef:ac:63:
                    4f:dd:71:61:b3:e8:e2:68:04:ef:8e:45:07:fc:6a:
                    50:c1
                Exponent: 65537 (0x10001)
        X509v3 extensions:
            X509v3 Basic Constraints: critical
                CA:FALSE
            X509v3 Subject Key Identifier: 
                5D:D3:2D:90:38:8F:94:56:3B:06:23:FB:65:D7:63:F2:9D:ED:70:FF
            X509v3 Authority Key Identifier: 
                keyid:64:B6:26:E1:E4:1E:8F:C4:2C:AB:5E:7F:E1:90:74:F9:E5:E1:FC:6A
                DirName:/CN=devcert
                serial:E2:1A:13:90:54:92:23:62

            X509v3 Key Usage: critical
                Digital Signature, Key Encipherment
            X509v3 Extended Key Usage: 
                TLS Web Server Authentication
            X509v3 Subject Alternative Name: 
                DNS:localhost, DNS:*.localhost
    Signature Algorithm: sha256WithRSAEncryption
         44:58:9a:c7:16:95:41:c3:15:d7:96:d2:02:4a:f8:ff:68:66:
         65:53:57:6e:24:96:b7:2b:07:b7:8c:f9:ca:8f:36:85:8b:7f:
         af:3e:45:14:b9:e4:bc:e2:0a:c1:39:2a:b4:2c:07:c1:00:34:
         eb:ad:24:99:a0:58:fc:9f:ea:11:53:86:44:40:47:17:da:a3:
         d5:61:d5:e2:df:a9:c4:c4:9f:0a:2d:e6:76:92:91:0a:4f:e5:
         3e:e6:11:37:65:87:74:af:3e:58:0d:6a:b9:58:29:84:67:79:
         e3:45:ff:68:1c:57:e1:f2:fa:ce:45:df:28:19:a8:8c:db:a5:
         98:2e:e2:06:64:b7:ba:95:f7:c4:04:79:c7:22:22:0b:76:70:
         93:d4:f9:d9:e4:ea:e3:eb:31:51:6d:32:44:07:11:c6:bd:3a:
         f8:99:5a:9c:d5:7b:18:09:15:20:91:28:ec:c7:e3:a4:c7:ab:
         f9:5a:8e:7c:c0:66:df:fd:33:9b:6e:ec:2f:1c:72:cf:2f:95:
         cd:10:4b:1b:17:83:0d:9b:0b:bb:24:7a:bf:99:28:79:47:3f:
         dd:a8:71:13:99:db:c3:33:87:a4:b4:d9:eb:17:a0:4f:ec:6b:
         16:5b:8e:be:e0:a4:ce:46:16:ba:14:b6:42:d8:17:cc:e7:0b:
         98:20:ba:40
-----BEGIN CERTIFICATE-----
MIIDXjCCAkagAwIBAgIBATANBgkqhkiG9w0BAQsFADASMRAwDgYDVQQDDAdkZXZj
ZXJ0MB4XDTIwMDUwMTEwMTkyM1oXDTIyMDgwNDEwMTkyM1owFDESMBAGA1UEAwwJ
bG9jYWxob3N0MIIBIjANBgkqhkiG9w0BAQEFAAOCAQ8AMIIBCgKCAQEA6gk8zUR1
Up2g4Rxlv1NnGP4XzH6niIHMfXLK4p9zQn6BMKGYYY5aBiKBmei5vM9G34tDzj9b
YNlK4uTaEzb3a1oMkNm/nJ6Wepn4K4nt9w4U8nk5IWXxsIHj1ZcYxr59LhJoENTl
SAZwgTlzZC/N5fh0EQ4XY3yQKV8OtBApIZkxyAGlXNvSVRbCslqUUX/CxQN3AVoR
SJZYNLd0UIij9Dfxzexm6m6q2RB6+V4fL17bhzxWyydA/n6/aZR3QEo1Pcy/Hdcx
7RSpLFMcBZSx/4uaP79Eco+6/Hr/HKl+5n2Lfiz1YK2/NlpCzl3vrGNP3XFhs+ji
aATvjkUH/GpQwQIDAQABo4G8MIG5MAwGA1UdEwEB/wQCMAAwHQYDVR0OBBYEFF3T
LZA4j5RWOwYj+2XXY/Kd7XD/MEIGA1UdIwQ7MDmAFGS2JuHkHo/ELKtef+GQdPnl
4fxqoRakFDASMRAwDgYDVQQDDAdkZXZjZXJ0ggkA4hoTkFSSI2IwDgYDVR0PAQH/
BAQDAgWgMBMGA1UdJQQMMAoGCCsGAQUFBwMBMCEGA1UdEQQaMBiCCWxvY2FsaG9z
dIILKi5sb2NhbGhvc3QwDQYJKoZIhvcNAQELBQADggEBAERYmscWlUHDFdeW0gJK
+P9oZmVTV24klrcrB7eM+cqPNoWLf68+RRS55LziCsE5KrQsB8EANOutJJmgWPyf
6hFThkRARxfao9Vh1eLfqcTEnwot5naSkQpP5T7mETdlh3SvPlgNarlYKYRneeNF
/2gcV+Hy+s5F3ygZqIzbpZgu4gZkt7qV98QEecciIgt2cJPU+dnk6uPrMVFtMkQH
Eca9OviZWpzVexgJFSCRKOzH46THq/lajnzAZt/9M5tu7C8ccs8vlc0QSxsXgw2b
C7sker+ZKHlHP92ocROZ28Mzh6S02esXoE/saxZbjr7gpM5GFroUtkLYF8znC5gg
ukA=
-----END CERTIFICATE-----
